; ModuleID = '50/2237.c'
source_filename = "50/2237.c"
target datalayout = "e-m:e-p270:32:32-p271:32:32-p272:64:64-i64:64-f80:128-n8:16:32:64-S128"
target triple = "x86_64-pc-linux-gnu"

@__const.main.a = private unnamed_addr constant [12 x i32] [i32 31, i32 28, i32 31, i32 30, i32 31, i32 30, i32 31, i32 31, i32 30, i32 31, i32 30, i32 31], align 16
@.str = private unnamed_addr constant [3 x i8] c"%d\00", align 1
@.str.1 = private unnamed_addr constant [3 x i8] c"1\0A\00", align 1
@.str.2 = private unnamed_addr constant [4 x i8] c"%d\0A\00", align 1

; Function Attrs: noinline nounwind uwtable
define dso_local i32 @main() #0 {
  %1 = alloca i32, align 4
  %2 = alloca [12 x i32], align 16
  %3 = alloca i32, align 4
  %4 = alloca i32, align 4
  %5 = alloca i32, align 4
  %6 = alloca i32, align 4
  store i32 0, i32* %1, align 4
  %7 = bitcast [12 x i32]* %2 to i8*
  call void @llvm.memcpy.p0i8.p0i8.i64(i8* align 16 %7, i8* align 16 bitcast ([12 x i32]* @__const.main.a to i8*), i64 48, i1 false)
  %8 = call i32 (i8*, ...) @__isoc99_scanf(i8* getelementptr inbounds ([3 x i8], [3 x i8]* @.str, i64 0, i64 0), i32* %5)
  store i32 1, i32* %3, align 4
  br label %9

9:                                                ; preds = %26, %0
  %10 = load i32, i32* %3, align 4
  %11 = icmp slt i32 %10, 12
  br i1 %11, label %12, label %29

12:                                               ; preds = %9
  %13 = load i32, i32* %3, align 4
  %14 = sub nsw i32 %13, 1
  %15 = sext i32 %14 to i64
  %16 = getelementptr inbounds [12 x i32], [12 x i32]* %2, i64 0, i64 %15
  %17 = load i32, i32* %16, align 4
  %18 = load i32, i32* %3, align 4
  %19 = sext i32 %18 to i64
  %20 = getelementptr inbounds [12 x i32], [12 x i32]* %2, i64 0, i64 %19
  %21 = load i32, i32* %20, align 4
  %22 = add nsw i32 %17, %21
  %23 = load i32, i32* %3, align 4
  %24 = sext i32 %23 to i64
  %25 = getelementptr inbounds [12 x i32], [12 x i32]* %2, i64 0, i64 %24
  store i32 %22, i32* %25, align 4
  br label %26

26:                                               ; preds = %12
  %27 = load i32, i32* %3, align 4
  %28 = add nsw i32 %27, 1
  store i32 %28, i32* %3, align 4
  br label %9

29:                                               ; preds = %9
  %30 = load i32, i32* %5, align 4
  %31 = sub nsw i32 13, %30
  store i32 %31, i32* %6, align 4
  %32 = load i32, i32* %6, align 4
  %33 = sub nsw i32 13, %32
  %34 = icmp eq i32 %33, 7
  br i1 %34, label %35, label %37

35:                                               ; preds = %29
  %36 = call i32 (i8*, ...) @printf(i8* getelementptr inbounds ([3 x i8], [3 x i8]* @.str.1, i64 0, i64 0))
  br label %37

37:                                               ; preds = %35, %29
  store i32 1, i32* %3, align 4
  br label %38

38:                                               ; preds = %57, %37
  %39 = load i32, i32* %3, align 4
  %40 = icmp slt i32 %39, 12
  br i1 %40, label %41, label %60

41:                                               ; preds = %38
  %42 = load i32, i32* %3, align 4
  %43 = sub nsw i32 %42, 1
  %44 = sext i32 %43 to i64
  %45 = getelementptr inbounds [12 x i32], [12 x i32]* %2, i64 0, i64 %44
  %46 = load i32, i32* %45, align 4
  %47 = add nsw i32 %46, 13
  %48 = load i32, i32* %6, align 4
  %49 = sub nsw i32 %47, %48
  %50 = srem i32 %49, 7
  %51 = icmp eq i32 %50, 0
  br i1 %51, label %52, label %56

52:                                               ; preds = %41
  %53 = load i32, i32* %3, align 4
  %54 = add nsw i32 %53, 1
  %55 = call i32 (i8*, ...) @printf(i8* getelementptr inbounds ([4 x i8], [4 x i8]* @.str.2, i64 0, i64 0), i32 %54)
  br label %56

56:                                               ; preds = %52, %41
  br label %57

57:                                               ; preds = %56
  %58 = load i32, i32* %3, align 4
  %59 = add nsw i32 %58, 1
  store i32 %59, i32* %3, align 4
  br label %38

60:                                               ; preds = %38
  %61 = load i32, i32* %1, align 4
  ret i32 %61
}

; Function Attrs: argmemonly nounwind willreturn
declare void @llvm.memcpy.p0i8.p0i8.i64(i8* noalias nocapture writeonly, i8* noalias nocapture readonly, i64, i1 immarg) #1

declare dso_local i32 @__isoc99_scanf(i8*, ...) #2

declare dso_local i32 @printf(i8*, ...) #2


!llvm.module.flags = !{!0}
!llvm.ident = !{!1}

!0 = !{i32 1, !"wchar_size", i32 4}
!1 = !{!"clang version 10.0.0-4ubuntu1 "}
